; ModuleID = 'source-C-CXX/42/1253.cpp'
source_filename = "source-C-CXX/42/1253.cpp"
target datalayout = "e-m:e-p270:32:32-p271:32:32-p272:64:64-i64:64-f80:128-n8:16:32:64-S128"
target triple = "x86_64-pc-linux-gnu"

%"class.std::ios_base::Init" = type { i8 }
%"class.std::basic_istream" = type { i32 (...)**, i64, %"class.std::basic_ios" }
%"class.std::basic_ios" = type { %"class.std::ios_base", %"class.std::basic_ostream"*, i8, i8, %"class.std::basic_streambuf"*, %"class.std::ctype"*, %"class.std::num_put"*, %"class.std::num_get"* }
%"class.std::ios_base" = type { i32 (...)**, i64, i64, i32, i32, i32, %"struct.std::ios_base::_Callback_list"*, %"struct.std::ios_base::_Words", [8 x %"struct.std::ios_base::_Words"], i32, %"struct.std::ios_base::_Words"*, %"class.std::locale" }
%"struct.std::ios_base::_Callback_list" = type { %"struct.std::ios_base::_Callback_list"*, void (i32, %"class.std::ios_base"*, i32)*, i32, i32 }
%"struct.std::ios_base::_Words" = type { i8*, i64 }
%"class.std::locale" = type { %"class.std::locale::_Impl"* }
%"class.std::locale::_Impl" = type { i32, %"class.std::locale::facet"**, i64, %"class.std::locale::facet"**, i8** }
%"class.std::locale::facet" = type <{ i32 (...)**, i32, [4 x i8] }>
%"class.std::basic_ostream" = type { i32 (...)**, %"class.std::basic_ios" }
%"class.std::basic_streambuf" = type { i32 (...)**, i8*, i8*, i8*, i8*, i8*, i8*, %"class.std::locale" }
%"class.std::ctype" = type <{ %"class.std::locale::facet.base", [4 x i8], %struct.__locale_struct*, i8, [7 x i8], i32*, i32*, i16*, i8, [256 x i8], [256 x i8], i8, [6 x i8] }>
%"class.std::locale::facet.base" = type <{ i32 (...)**, i32 }>
%struct.__locale_struct = type { [13 x %struct.__locale_data*], i16*, i32*, i32*, [13 x i8*] }
%struct.__locale_data = type opaque
%"class.std::num_put" = type { %"class.std::locale::facet.base", [4 x i8] }
%"class.std::num_get" = type { %"class.std::locale::facet.base", [4 x i8] }

@_ZStL8__ioinit = internal global %"class.std::ios_base::Init" zeroinitializer, align 1
@__dso_handle = external hidden global i8
@_ZSt3cin = external global %"class.std::basic_istream", align 8
@_ZSt4cout = external global %"class.std::basic_ostream", align 8
@.str = private unnamed_addr constant [2 x i8] c" \00", align 1
@llvm.global_ctors = appending global [1 x { i32, void ()*, i8* }] [{ i32, void ()*, i8* } { i32 65535, void ()* @_GLOBAL__sub_I_1253.cpp, i8* null }]

declare void @_ZNSt8ios_base4InitC1Ev(%"class.std::ios_base::Init"* nonnull align 1 dereferenceable(1)) unnamed_addr #0

; Function Attrs: nounwind
declare void @_ZNSt8ios_base4InitD1Ev(%"class.std::ios_base::Init"* nonnull align 1 dereferenceable(1)) unnamed_addr #1

; Function Attrs: nofree nounwind
declare i32 @__cxa_atexit(void (i8*)*, i8*, i8*) local_unnamed_addr #2

; Function Attrs: mustprogress norecurse sspstrong uwtable
define dso_local i32 @main() local_unnamed_addr #3 {
  %1 = alloca i32, align 4
  %2 = bitcast i32* %1 to i8*
  call void @llvm.lifetime.start.p0i8(i64 4, i8* nonnull %2) #7
  %3 = call nonnull align 8 dereferenceable(16) %"class.std::basic_istream"* @_ZNSirsERi(%"class.std::basic_istream"* nonnull align 8 dereferenceable(16) @_ZSt3cin, i32* nonnull align 4 dereferenceable(4) %1)
  %4 = load i32, i32* %1, align 4, !tbaa !5
  %5 = icmp slt i32 %4, 6
  br i1 %5, label %98, label %6

6:                                                ; preds = %0, %92
  %7 = phi i32 [ %97, %92 ], [ 0, %0 ]
  %8 = phi i32 [ %93, %92 ], [ %4, %0 ]
  %9 = phi i32 [ %94, %92 ], [ 3, %0 ]
  %10 = add i32 %7, 1
  %11 = and i32 %10, 1
  %12 = icmp eq i32 %7, 0
  br i1 %12, label %15, label %13

13:                                               ; preds = %6
  %14 = and i32 %10, -2
  br label %29

15:                                               ; preds = %29, %6
  %16 = phi i32 [ undef, %6 ], [ %41, %29 ]
  %17 = phi i32 [ 3, %6 ], [ %42, %29 ]
  %18 = phi i32 [ 0, %6 ], [ %41, %29 ]
  %19 = icmp eq i32 %11, 0
  br i1 %19, label %25, label %20

20:                                               ; preds = %15
  %21 = urem i32 %9, %17
  %22 = icmp eq i32 %21, 0
  %23 = zext i1 %22 to i32
  %24 = add nuw nsw i32 %18, %23
  br label %25

25:                                               ; preds = %15, %20
  %26 = phi i32 [ %16, %15 ], [ %24, %20 ]
  %27 = sub nsw i32 %8, %9
  %28 = icmp slt i32 %27, 3
  br i1 %28, label %92, label %49

29:                                               ; preds = %29, %13
  %30 = phi i32 [ 3, %13 ], [ %42, %29 ]
  %31 = phi i32 [ 0, %13 ], [ %41, %29 ]
  %32 = phi i32 [ %14, %13 ], [ %43, %29 ]
  %33 = urem i32 %9, %30
  %34 = icmp eq i32 %33, 0
  %35 = zext i1 %34 to i32
  %36 = add nuw nsw i32 %31, %35
  %37 = add nuw nsw i32 %30, 2
  %38 = urem i32 %9, %37
  %39 = icmp eq i32 %38, 0
  %40 = zext i1 %39 to i32
  %41 = add nuw nsw i32 %36, %40
  %42 = add nuw nsw i32 %30, 4
  %43 = add i32 %32, -2
  %44 = icmp eq i32 %43, 0
  br i1 %44, label %15, label %29, !llvm.loop !9

45:                                               ; preds = %49
  %46 = icmp eq i32 %26, 1
  %47 = icmp eq i32 %55, 1
  %48 = select i1 %46, i1 %47, i1 false
  br i1 %48, label %58, label %92

49:                                               ; preds = %25, %49
  %50 = phi i32 [ %56, %49 ], [ 3, %25 ]
  %51 = phi i32 [ %55, %49 ], [ 0, %25 ]
  %52 = srem i32 %27, %50
  %53 = icmp eq i32 %52, 0
  %54 = zext i1 %53 to i32
  %55 = add nuw nsw i32 %51, %54
  %56 = add nuw nsw i32 %50, 2
  %57 = icmp sgt i32 %56, %27
  br i1 %57, label %45, label %49, !llvm.loop !11

58:                                               ; preds = %45
  %59 = call nonnull align 8 dereferenceable(8) %"class.std::basic_ostream"* @_ZNSolsEi(%"class.std::basic_ostream"* nonnull align 8 dereferenceable(8) @_ZSt4cout, i32 %9)
  %60 = call nonnull align 8 dereferenceable(8) %"class.std::basic_ostream"* @_ZSt16__ostream_insertIcSt11char_traitsIcEERSt13basic_ostreamIT_T0_ES6_PKS3_l(%"class.std::basic_ostream"* nonnull align 8 dereferenceable(8) %59, i8* nonnull getelementptr inbounds ([2 x i8], [2 x i8]* @.str, i64 0, i64 0), i64 1)
  %61 = call nonnull align 8 dereferenceable(8) %"class.std::basic_ostream"* @_ZNSolsEi(%"class.std::basic_ostream"* nonnull align 8 dereferenceable(8) %59, i32 %27)
  %62 = bitcast %"class.std::basic_ostream"* %61 to i8**
  %63 = load i8*, i8** %62, align 8, !tbaa !12
  %64 = getelementptr i8, i8* %63, i64 -24
  %65 = bitcast i8* %64 to i64*
  %66 = load i64, i64* %65, align 8
  %67 = bitcast %"class.std::basic_ostream"* %61 to i8*
  %68 = add nsw i64 %66, 240
  %69 = getelementptr inbounds i8, i8* %67, i64 %68
  %70 = bitcast i8* %69 to %"class.std::ctype"**
  %71 = load %"class.std::ctype"*, %"class.std::ctype"** %70, align 8, !tbaa !14
  %72 = icmp eq %"class.std::ctype"* %71, null
  br i1 %72, label %73, label %74

73:                                               ; preds = %58
  call void @_ZSt16__throw_bad_castv() #8
  unreachable

74:                                               ; preds = %58
  %75 = getelementptr inbounds %"class.std::ctype", %"class.std::ctype"* %71, i64 0, i32 8
  %76 = load i8, i8* %75, align 8, !tbaa !18
  %77 = icmp eq i8 %76, 0
  br i1 %77, label %81, label %78

78:                                               ; preds = %74
  %79 = getelementptr inbounds %"class.std::ctype", %"class.std::ctype"* %71, i64 0, i32 9, i64 10
  %80 = load i8, i8* %79, align 1, !tbaa !20
  br label %87

81:                                               ; preds = %74
  call void @_ZNKSt5ctypeIcE13_M_widen_initEv(%"class.std::ctype"* nonnull align 8 dereferenceable(570) %71)
  %82 = bitcast %"class.std::ctype"* %71 to i8 (%"class.std::ctype"*, i8)***
  %83 = load i8 (%"class.std::ctype"*, i8)**, i8 (%"class.std::ctype"*, i8)*** %82, align 8, !tbaa !12
  %84 = getelementptr inbounds i8 (%"class.std::ctype"*, i8)*, i8 (%"class.std::ctype"*, i8)** %83, i64 6
  %85 = load i8 (%"class.std::ctype"*, i8)*, i8 (%"class.std::ctype"*, i8)** %84, align 8
  %86 = call signext i8 %85(%"class.std::ctype"* nonnull align 8 dereferenceable(570) %71, i8 signext 10)
  br label %87

87:                                               ; preds = %78, %81
  %88 = phi i8 [ %80, %78 ], [ %86, %81 ]
  %89 = call nonnull align 8 dereferenceable(8) %"class.std::basic_ostream"* @_ZNSo3putEc(%"class.std::basic_ostream"* nonnull align 8 dereferenceable(8) %61, i8 signext %88)
  %90 = call nonnull align 8 dereferenceable(8) %"class.std::basic_ostream"* @_ZNSo5flushEv(%"class.std::basic_ostream"* nonnull align 8 dereferenceable(8) %89)
  %91 = load i32, i32* %1, align 4, !tbaa !5
  br label %92

92:                                               ; preds = %25, %45, %87
  %93 = phi i32 [ %8, %45 ], [ %91, %87 ], [ %8, %25 ]
  %94 = add nuw nsw i32 %9, 2
  %95 = sdiv i32 %93, 2
  %96 = icmp sgt i32 %94, %95
  %97 = add i32 %7, 1
  br i1 %96, label %98, label %6, !llvm.loop !21

98:                                               ; preds = %92, %0
  call void @llvm.lifetime.end.p0i8(i64 4, i8* nonnull %2) #7
  ret i32 0
}

; Function Attrs: argmemonly mustprogress nofree nosync nounwind willreturn
declare void @llvm.lifetime.start.p0i8(i64 immarg, i8* nocapture) #4

declare nonnull align 8 dereferenceable(16) %"class.std::basic_istream"* @_ZNSirsERi(%"class.std::basic_istream"* nonnull align 8 dereferenceable(16), i32* nonnull align 4 dereferenceable(4)) local_unnamed_addr #0

; Function Attrs: argmemonly mustprogress nofree nosync nounwind willreturn
declare void @llvm.lifetime.end.p0i8(i64 immarg, i8* nocapture) #4

declare nonnull align 8 dereferenceable(8) %"class.std::basic_ostream"* @_ZNSolsEi(%"class.std::basic_ostream"* nonnull align 8 dereferenceable(8), i32) local_unnamed_addr #0

declare nonnull align 8 dereferenceable(8) %"class.std::basic_ostream"* @_ZSt16__ostream_insertIcSt11char_traitsIcEERSt13basic_ostreamIT_T0_ES6_PKS3_l(%"class.std::basic_ostream"* nonnull align 8 dereferenceable(8), i8*, i64) local_unnamed_addr #0

declare nonnull align 8 dereferenceable(8) %"class.std::basic_ostream"* @_ZNSo3putEc(%"class.std::basic_ostream"* nonnull align 8 dereferenceable(8), i8 signext) local_unnamed_addr #0

declare nonnull align 8 dereferenceable(8) %"class.std::basic_ostream"* @_ZNSo5flushEv(%"class.std::basic_ostream"* nonnull align 8 dereferenceable(8)) local_unnamed_addr #0

; Function Attrs: noreturn
declare void @_ZSt16__throw_bad_castv() local_unnamed_addr #5

declare void @_ZNKSt5ctypeIcE13_M_widen_initEv(%"class.std::ctype"* nonnull align 8 dereferenceable(570)) local_unnamed_addr #0

; Function Attrs: sspstrong uwtable
define internal void @_GLOBAL__sub_I_1253.cpp() #6 section ".text.startup" {
  tail call void @_ZNSt8ios_base4InitC1Ev(%"class.std::ios_base::Init"* nonnull align 1 dereferenceable(1) @_ZStL8__ioinit)
  %1 = tail call i32 @__cxa_atexit(void (i8*)* bitcast (void (%"class.std::ios_base::Init"*)* @_ZNSt8ios_base4InitD1Ev to void (i8*)*), i8* getelementptr inbounds (%"class.std::ios_base::Init", %"class.std::ios_base::Init"* @_ZStL8__ioinit, i64 0, i32 0), i8* nonnull @__dso_handle) #7
  ret void
}


!llvm.module.flags = !{!0, !1, !2, !3}
!llvm.ident = !{!4}

!0 = !{i32 1, !"wchar_size", i32 4}
!1 = !{i32 7, !"PIC Level", i32 2}
!2 = !{i32 7, !"PIE Level", i32 2}
!3 = !{i32 7, !"uwtable", i32 1}
!4 = !{!"clang version 13.0.0"}
!5 = !{!6, !6, i64 0}
!6 = !{!"int", !7, i64 0}
!7 = !{!"omnipotent char", !8, i64 0}
!8 = !{!"Simple C++ TBAA"}
!9 = distinct !{!9, !10}
!10 = !{!"llvm.loop.mustprogress"}
!11 = distinct !{!11, !10}
!12 = !{!13, !13, i64 0}
!13 = !{!"vtable pointer", !8, i64 0}
!14 = !{!15, !16, i64 240}
!15 = !{!"_ZTSSt9basic_iosIcSt11char_traitsIcEE", !16, i64 216, !7, i64 224, !17, i64 225, !16, i64 232, !16, i64 240, !16, i64 248, !16, i64 256}
!16 = !{!"any pointer", !7, i64 0}
!17 = !{!"bool", !7, i64 0}
!18 = !{!19, !7, i64 56}
!19 = !{!"_ZTSSt5ctypeIcE", !16, i64 16, !17, i64 24, !16, i64 32, !16, i64 40, !16, i64 48, !7, i64 56, !7, i64 57, !7, i64 313, !7, i64 569}
!20 = !{!7, !7, i64 0}
!21 = distinct !{!21, !10}
